target datalayout = "e-m:e-p270:32:32-p271:32:32-p272:64:64-i64:64-i128:128-f80:128-n8:16:32:64-S128"
target triple = "x86_64-pc-linux-gnu"

%struct._packet_info = type { ptr, ptr, i32, i32, %struct.nstime_t, %struct.nstime_t, %struct.nstime_t, i8, ptr, ptr, ptr, ptr, %struct._address, %struct._address, %struct._address, %struct._address, %struct._address, %struct._address, i32, ptr, i8, [3 x i8], %struct.anon, i32, i32, i32, i32, ptr, i8, ptr, ptr, i16, i16, i32, i32, i16, i32, i32, ptr, ptr, ptr, i8, i8, i16, i16, i16, i32, i16, i16, ptr, ptr, ptr, ptr, ptr, i32, i32 }
%struct.nstime_t = type { i64, i32 }
%struct._address = type { i32, i32, ptr, ptr }
%struct.anon = type { i8, [3 x i8] }

@hf_dtpt_version = internal global i32 0, align 4
@hf_dtpt_message_type = internal global i32 0, align 4
@hf_dtpt_flags = internal global i32 0, align 4
@hf_dtpt_payload_size = internal global i32 0, align 4
@hf_dtpt_handle = internal global i32 0, align 4
@hf_dtpt_error = internal global i32 0, align 4
@hf_dtpt_buffer_size = internal global i32 0, align 4
@hf_dtpt_data_size = internal global i32 0, align 4
@hf_dtpt_connect_addr = internal global i32 0, align 4
@ett_dtpt = internal global i32 0, align 4
@ett_dtpt_flags = internal global i32 0, align 4
@.str.180 = private unnamed_addr constant [5 x i8] c"DTPT\00", align 1
@proto_dtpt = internal global i32 0, align 4
@dtpt_conversation_handle = internal global ptr null, align 8
@.str.209 = private unnamed_addr constant [13 x i8] c"Unknown (%d)\00", align 1

; Function Attrs: null_pointer_is_valid sspstrong uwtable
define internal i32 @dissect_dtpt(ptr noundef %0, ptr noundef %1, ptr noundef %2, ptr noundef %3) #0 {
  %5 = alloca i32, align 4
  %6 = alloca ptr, align 8
  %7 = alloca ptr, align 8
  %8 = alloca ptr, align 8
  %9 = alloca ptr, align 8
  %10 = alloca ptr, align 8
  %11 = alloca ptr, align 8
  %12 = alloca i8, align 1
  %13 = alloca i8, align 1
  %14 = alloca i32, align 4
  %15 = alloca i32, align 4
  %16 = alloca ptr, align 8
  store ptr %0, ptr %6, align 8
  store ptr %1, ptr %7, align 8
  store ptr %2, ptr %8, align 8
  store ptr %3, ptr %9, align 8
  call void @llvm.lifetime.start.p0(i64 8, ptr %10) #7
  call void @llvm.lifetime.start.p0(i64 8, ptr %11) #7
  call void @llvm.lifetime.start.p0(i64 1, ptr %12) #7
  call void @llvm.lifetime.start.p0(i64 1, ptr %13) #7
  call void @llvm.lifetime.start.p0(i64 4, ptr %14) #7
  %17 = load ptr, ptr %6, align 8
  %18 = call zeroext i8 @tvb_get_uint8(ptr noundef %17, i32 noundef 0)
  store i8 %18, ptr %12, align 1
  %19 = load i8, ptr %12, align 1
  %20 = zext i8 %19 to i32
  %21 = icmp ne i32 %20, 1
  br i1 %21, label %22, label %23

22:                                               ; preds = %4
  store i32 0, ptr %5, align 4
  store i32 1, ptr %15, align 4
  br label %163

23:                                               ; preds = %4
  %24 = load ptr, ptr %6, align 8
  %25 = call zeroext i8 @tvb_get_uint8(ptr noundef %24, i32 noundef 1)
  store i8 %25, ptr %13, align 1
  %26 = load i8, ptr %13, align 1
  %27 = zext i8 %26 to i32
  switch i32 %27, label %40 [
    i32 9, label %28
    i32 10, label %28
    i32 11, label %28
    i32 12, label %28
    i32 13, label %28
    i32 1, label %34
    i32 90, label %34
    i32 91, label %34
  ]

28:                                               ; preds = %23, %23, %23, %23, %23
  %29 = load ptr, ptr %6, align 8
  %30 = call i32 @tvb_reported_length(ptr noundef %29)
  %31 = icmp ne i32 %30, 20
  br i1 %31, label %32, label %33

32:                                               ; preds = %28
  store i32 0, ptr %5, align 4
  store i32 1, ptr %15, align 4
  br label %163

33:                                               ; preds = %28
  br label %41

34:                                               ; preds = %23, %23, %23
  %35 = load ptr, ptr %6, align 8
  %36 = call i32 @tvb_reported_length(ptr noundef %35)
  %37 = icmp ne i32 %36, 36
  br i1 %37, label %38, label %39

38:                                               ; preds = %34
  store i32 0, ptr %5, align 4
  store i32 1, ptr %15, align 4
  br label %163

39:                                               ; preds = %34
  br label %41

40:                                               ; preds = %23
  store i32 0, ptr %5, align 4
  store i32 1, ptr %15, align 4
  br label %163

41:                                               ; preds = %39, %33
  %42 = load ptr, ptr %7, align 8
  %43 = getelementptr inbounds nuw %struct._packet_info, ptr %42, i32 0, i32 1
  %44 = load ptr, ptr %43, align 8
  call void @col_set_str(ptr noundef %44, i32 noundef 35, ptr noundef @.str.180)
  %45 = load ptr, ptr %7, align 8
  %46 = getelementptr inbounds nuw %struct._packet_info, ptr %45, i32 0, i32 1
  %47 = load ptr, ptr %46, align 8
  %48 = load i8, ptr %13, align 1
  %49 = zext i8 %48 to i32
  %50 = call ptr @val_to_str(i32 noundef %49, ptr noundef @names_message_type, ptr noundef @.str.209)
  call void @col_add_str(ptr noundef %47, i32 noundef 25, ptr noundef %50)
  %51 = load i8, ptr %13, align 1
  %52 = zext i8 %51 to i32
  %53 = icmp eq i32 %52, 9
  br i1 %53, label %54, label %59

54:                                               ; preds = %41
  call void @llvm.lifetime.start.p0(i64 8, ptr %16) #7
  %55 = load ptr, ptr %7, align 8
  %56 = call ptr @find_or_create_conversation(ptr noundef %55)
  store ptr %56, ptr %16, align 8
  %57 = load ptr, ptr %16, align 8
  %58 = load ptr, ptr @dtpt_conversation_handle, align 8
  call void @conversation_set_dissector(ptr noundef %57, ptr noundef %58)
  call void @llvm.lifetime.end.p0(i64 8, ptr %16) #7
  br label %59

59:                                               ; preds = %54, %41
  %60 = load ptr, ptr %8, align 8
  %61 = load i32, ptr @proto_dtpt, align 4
  %62 = load ptr, ptr %6, align 8
  %63 = call ptr @proto_tree_add_item(ptr noundef %60, i32 noundef %61, ptr noundef %62, i32 noundef 0, i32 noundef -1, i32 noundef 0)
  store ptr %63, ptr %11, align 8
  %64 = load ptr, ptr %11, align 8
  %65 = load i32, ptr @ett_dtpt, align 4
  %66 = call ptr @proto_item_add_subtree(ptr noundef %64, i32 noundef %65)
  store ptr %66, ptr %10, align 8
  %67 = load ptr, ptr %10, align 8
  %68 = icmp ne ptr %67, null
  br i1 %68, label %69, label %160

69:                                               ; preds = %59
  %70 = load ptr, ptr %10, align 8
  %71 = load i32, ptr @hf_dtpt_version, align 4
  %72 = load ptr, ptr %6, align 8
  %73 = load i8, ptr %12, align 1
  %74 = zext i8 %73 to i32
  %75 = call ptr @proto_tree_add_uint(ptr noundef %70, i32 noundef %71, ptr noundef %72, i32 noundef 0, i32 noundef 1, i32 noundef %74)
  %76 = load ptr, ptr %10, align 8
  %77 = load i32, ptr @hf_dtpt_message_type, align 4
  %78 = load ptr, ptr %6, align 8
  %79 = load i8, ptr %13, align 1
  %80 = zext i8 %79 to i32
  %81 = call ptr @proto_tree_add_uint(ptr noundef %76, i32 noundef %77, ptr noundef %78, i32 noundef 1, i32 noundef 1, i32 noundef %80)
  %82 = load i8, ptr %13, align 1
  %83 = zext i8 %82 to i32
  switch i32 %83, label %159 [
    i32 9, label %84
    i32 10, label %97
    i32 11, label %106
    i32 12, label %115
    i32 13, label %124
    i32 1, label %129
    i32 90, label %139
    i32 91, label %149
  ]

84:                                               ; preds = %69
  %85 = load ptr, ptr %10, align 8
  %86 = load ptr, ptr %6, align 8
  %87 = load i32, ptr @hf_dtpt_flags, align 4
  %88 = load i32, ptr @ett_dtpt_flags, align 4
  %89 = call ptr @proto_tree_add_bitmask(ptr noundef %85, ptr noundef %86, i32 noundef 12, i32 noundef %87, i32 noundef %88, ptr noundef @dissect_dtpt.flags, i32 noundef -2147483648)
  %90 = load ptr, ptr %6, align 8
  %91 = call i32 @tvb_get_letohl(ptr noundef %90, i32 noundef 16)
  store i32 %91, ptr %14, align 4
  %92 = load ptr, ptr %10, align 8
  %93 = load i32, ptr @hf_dtpt_payload_size, align 4
  %94 = load ptr, ptr %6, align 8
  %95 = load i32, ptr %14, align 4
  %96 = call ptr @proto_tree_add_uint(ptr noundef %92, i32 noundef %93, ptr noundef %94, i32 noundef 16, i32 noundef 4, i32 noundef %95)
  br label %159

97:                                               ; preds = %69
  %98 = load ptr, ptr %10, align 8
  %99 = load i32, ptr @hf_dtpt_handle, align 4
  %100 = load ptr, ptr %6, align 8
  %101 = call ptr @proto_tree_add_item(ptr noundef %98, i32 noundef %99, ptr noundef %100, i32 noundef 4, i32 noundef 8, i32 noundef -2147483648)
  %102 = load ptr, ptr %10, align 8
  %103 = load i32, ptr @hf_dtpt_error, align 4
  %104 = load ptr, ptr %6, align 8
  %105 = call ptr @proto_tree_add_item(ptr noundef %102, i32 noundef %103, ptr noundef %104, i32 noundef 12, i32 noundef 4, i32 noundef -2147483648)
  br label %159

106:                                              ; preds = %69
  %107 = load ptr, ptr %10, align 8
  %108 = load i32, ptr @hf_dtpt_handle, align 4
  %109 = load ptr, ptr %6, align 8
  %110 = call ptr @proto_tree_add_item(ptr noundef %107, i32 noundef %108, ptr noundef %109, i32 noundef 4, i32 noundef 8, i32 noundef -2147483648)
  %111 = load ptr, ptr %10, align 8
  %112 = load i32, ptr @hf_dtpt_buffer_size, align 4
  %113 = load ptr, ptr %6, align 8
  %114 = call ptr @proto_tree_add_item(ptr noundef %111, i32 noundef %112, ptr noundef %113, i32 noundef 16, i32 noundef 4, i32 noundef -2147483648)
  br label %159

115:                                              ; preds = %69
  %116 = load ptr, ptr %10, align 8
  %117 = load i32, ptr @hf_dtpt_error, align 4
  %118 = load ptr, ptr %6, align 8
  %119 = call ptr @proto_tree_add_item(ptr noundef %116, i32 noundef %117, ptr noundef %118, i32 noundef 12, i32 noundef 4, i32 noundef -2147483648)
  %120 = load ptr, ptr %10, align 8
  %121 = load i32, ptr @hf_dtpt_data_size, align 4
  %122 = load ptr, ptr %6, align 8
  %123 = call ptr @proto_tree_add_item(ptr noundef %120, i32 noundef %121, ptr noundef %122, i32 noundef 16, i32 noundef 4, i32 noundef -2147483648)
  br label %159

124:                                              ; preds = %69
  %125 = load ptr, ptr %10, align 8
  %126 = load i32, ptr @hf_dtpt_handle, align 4
  %127 = load ptr, ptr %6, align 8
  %128 = call ptr @proto_tree_add_item(ptr noundef %125, i32 noundef %126, ptr noundef %127, i32 noundef 4, i32 noundef 8, i32 noundef -2147483648)
  br label %159

129:                                              ; preds = %69
  %130 = load ptr, ptr %6, align 8
  %131 = load ptr, ptr %10, align 8
  %132 = load ptr, ptr %7, align 8
  %133 = load i32, ptr @hf_dtpt_connect_addr, align 4
  %134 = call i32 @dissect_dtpt_sockaddr(ptr noundef %130, i32 noundef 2, ptr noundef %131, ptr noundef %132, i32 noundef %133, i32 noundef 2)
  %135 = load ptr, ptr %10, align 8
  %136 = load i32, ptr @hf_dtpt_error, align 4
  %137 = load ptr, ptr %6, align 8
  %138 = call ptr @proto_tree_add_item(ptr noundef %135, i32 noundef %136, ptr noundef %137, i32 noundef 32, i32 noundef 4, i32 noundef -2147483648)
  br label %159

139:                                              ; preds = %69
  %140 = load ptr, ptr %6, align 8
  %141 = load ptr, ptr %10, align 8
  %142 = load ptr, ptr %7, align 8
  %143 = load i32, ptr @hf_dtpt_connect_addr, align 4
  %144 = call i32 @dissect_dtpt_sockaddr(ptr noundef %140, i32 noundef 2, ptr noundef %141, ptr noundef %142, i32 noundef %143, i32 noundef 2)
  %145 = load ptr, ptr %10, align 8
  %146 = load i32, ptr @hf_dtpt_error, align 4
  %147 = load ptr, ptr %6, align 8
  %148 = call ptr @proto_tree_add_item(ptr noundef %145, i32 noundef %146, ptr noundef %147, i32 noundef 32, i32 noundef 4, i32 noundef -2147483648)
  br label %159

149:                                              ; preds = %69
  %150 = load ptr, ptr %6, align 8
  %151 = load ptr, ptr %10, align 8
  %152 = load ptr, ptr %7, align 8
  %153 = load i32, ptr @hf_dtpt_connect_addr, align 4
  %154 = call i32 @dissect_dtpt_sockaddr(ptr noundef %150, i32 noundef 2, ptr noundef %151, ptr noundef %152, i32 noundef %153, i32 noundef 2)
  %155 = load ptr, ptr %10, align 8
  %156 = load i32, ptr @hf_dtpt_error, align 4
  %157 = load ptr, ptr %6, align 8
  %158 = call ptr @proto_tree_add_item(ptr noundef %155, i32 noundef %156, ptr noundef %157, i32 noundef 32, i32 noundef 4, i32 noundef -2147483648)
  br label %159

159:                                              ; preds = %69, %149, %139, %129, %124, %115, %106, %97, %84
  br label %160

160:                                              ; preds = %159, %59
  %161 = load ptr, ptr %6, align 8
  %162 = call i32 @tvb_captured_length(ptr noundef %161)
  store i32 %162, ptr %5, align 4
  store i32 1, ptr %15, align 4
  br label %163

163:                                              ; preds = %160, %40, %38, %32, %22
  call void @llvm.lifetime.end.p0(i64 4, ptr %14) #7
  call void @llvm.lifetime.end.p0(i64 1, ptr %13) #7
  call void @llvm.lifetime.end.p0(i64 1, ptr %12) #7
  call void @llvm.lifetime.end.p0(i64 8, ptr %11) #7
  call void @llvm.lifetime.end.p0(i64 8, ptr %10) #7
  %164 = load i32, ptr %5, align 4
  ret i32 %164
}