; Function Attrs: null_pointer_is_valid sspstrong uwtable
define internal i32 @dissect_dtpt(ptr noundef %0, ptr noundef %1, ptr noundef %2, ptr readnone captures(none) %3) #0 {
  %5 = tail call zeroext i8 @tvb_get_uint8(ptr noundef %0, i32 noundef 0)
  %.not = icmp eq i8 %5, 1
  br i1 %.not, label %6, label %74

6:                                                ; preds = %4
  %7 = tail call zeroext i8 @tvb_get_uint8(ptr noundef %0, i32 noundef 1)
  %8 = zext i8 %7 to i32
  switch i8 %7, label %74 [
    i8 9, label %9
    i8 10, label %9
    i8 11, label %9
    i8 12, label %9
    i8 13, label %9
    i8 1, label %11
    i8 90, label %11
    i8 91, label %11
  ]

9:                                                ; preds = %6, %6, %6, %6, %6
  %10 = tail call i32 @tvb_reported_length(ptr noundef %0)
  %.not62 = icmp eq i32 %10, 20
  br i1 %.not62, label %13, label %74

11:                                               ; preds = %6, %6, %6
  %12 = tail call i32 @tvb_reported_length(ptr noundef %0)
  %.not61 = icmp eq i32 %12, 36
  br i1 %.not61, label %13, label %74

13:                                               ; preds = %11, %9
  %14 = getelementptr inbounds nuw i8, ptr %1, i64 8
  %15 = load ptr, ptr %14, align 8
  tail call void @col_set_str(ptr noundef %15, i32 noundef 35, ptr noundef nonnull @.str.180)
  %16 = load ptr, ptr %14, align 8
  %17 = tail call ptr @val_to_str(i32 noundef %8, ptr noundef nonnull @names_message_type, ptr noundef nonnull @.str.209)
  tail call void @col_add_str(ptr noundef %16, i32 noundef 25, ptr noundef %17)
  %18 = icmp eq i8 %7, 9
  br i1 %18, label %19, label %22

19:                                               ; preds = %13
  %20 = tail call ptr @find_or_create_conversation(ptr noundef %1)
  %21 = load ptr, ptr @dtpt_conversation_handle, align 8
  tail call void @conversation_set_dissector(ptr noundef %20, ptr noundef %21)
  br label %22

22:                                               ; preds = %19, %13
  %23 = load i32, ptr @proto_dtpt, align 4
  %24 = tail call ptr @proto_tree_add_item(ptr noundef %2, i32 noundef %23, ptr noundef %0, i32 noundef 0, i32 noundef -1, i32 noundef 0)
  %25 = load i32, ptr @ett_dtpt, align 4
  %26 = tail call ptr @proto_item_add_subtree(ptr noundef %24, i32 noundef %25)
  %.not63 = icmp eq ptr %26, null
  br i1 %.not63, label %72, label %27

27:                                               ; preds = %22
  %28 = load i32, ptr @hf_dtpt_version, align 4
  %29 = tail call ptr @proto_tree_add_uint(ptr noundef nonnull %26, i32 noundef %28, ptr noundef %0, i32 noundef 0, i32 noundef 1, i32 noundef 1)
  %30 = load i32, ptr @hf_dtpt_message_type, align 4
  %31 = tail call ptr @proto_tree_add_uint(ptr noundef nonnull %26, i32 noundef %30, ptr noundef %0, i32 noundef 1, i32 noundef 1, i32 noundef %8)
  switch i8 %7, label %72 [
    i8 9, label %32
    i8 10, label %39
    i8 11, label %44
    i8 12, label %49
    i8 13, label %54
    i8 1, label %57
    i8 90, label %62
    i8 91, label %67
  ]

32:                                               ; preds = %27
  %33 = load i32, ptr @hf_dtpt_flags, align 4
  %34 = load i32, ptr @ett_dtpt_flags, align 4
  %35 = tail call ptr @proto_tree_add_bitmask(ptr noundef nonnull %26, ptr noundef %0, i32 noundef 12, i32 noundef %33, i32 noundef %34, ptr noundef nonnull @dissect_dtpt.flags, i32 noundef -2147483648)
  %36 = tail call i32 @tvb_get_letohl(ptr noundef %0, i32 noundef 16)
  %37 = load i32, ptr @hf_dtpt_payload_size, align 4
  %38 = tail call ptr @proto_tree_add_uint(ptr noundef nonnull %26, i32 noundef %37, ptr noundef %0, i32 noundef 16, i32 noundef 4, i32 noundef %36)
  br label %72

39:                                               ; preds = %27
  %40 = load i32, ptr @hf_dtpt_handle, align 4
  %41 = tail call ptr @proto_tree_add_item(ptr noundef nonnull %26, i32 noundef %40, ptr noundef %0, i32 noundef 4, i32 noundef 8, i32 noundef -2147483648)
  %42 = load i32, ptr @hf_dtpt_error, align 4
  %43 = tail call ptr @proto_tree_add_item(ptr noundef nonnull %26, i32 noundef %42, ptr noundef %0, i32 noundef 12, i32 noundef 4, i32 noundef -2147483648)
  br label %72

44:                                               ; preds = %27
  %45 = load i32, ptr @hf_dtpt_handle, align 4
  %46 = tail call ptr @proto_tree_add_item(ptr noundef nonnull %26, i32 noundef %45, ptr noundef %0, i32 noundef 4, i32 noundef 8, i32 noundef -2147483648)
  %47 = load i32, ptr @hf_dtpt_buffer_size, align 4
  %48 = tail call ptr @proto_tree_add_item(ptr noundef nonnull %26, i32 noundef %47, ptr noundef %0, i32 noundef 16, i32 noundef 4, i32 noundef -2147483648)
  br label %72

49:                                               ; preds = %27
  %50 = load i32, ptr @hf_dtpt_error, align 4
  %51 = tail call ptr @proto_tree_add_item(ptr noundef nonnull %26, i32 noundef %50, ptr noundef %0, i32 noundef 12, i32 noundef 4, i32 noundef -2147483648)
  %52 = load i32, ptr @hf_dtpt_data_size, align 4
  %53 = tail call ptr @proto_tree_add_item(ptr noundef nonnull %26, i32 noundef %52, ptr noundef %0, i32 noundef 16, i32 noundef 4, i32 noundef -2147483648)
  br label %72

54:                                               ; preds = %27
  %55 = load i32, ptr @hf_dtpt_handle, align 4
  %56 = tail call ptr @proto_tree_add_item(ptr noundef nonnull %26, i32 noundef %55, ptr noundef %0, i32 noundef 4, i32 noundef 8, i32 noundef -2147483648)
  br label %72

57:                                               ; preds = %27
  %58 = load i32, ptr @hf_dtpt_connect_addr, align 4
  %59 = tail call fastcc i32 @dissect_dtpt_sockaddr(ptr noundef %0, i32 noundef 2, ptr noundef nonnull %26, ptr noundef %1, i32 noundef %58, i32 noundef 2)
  %60 = load i32, ptr @hf_dtpt_error, align 4
  %61 = tail call ptr @proto_tree_add_item(ptr noundef nonnull %26, i32 noundef %60, ptr noundef %0, i32 noundef 32, i32 noundef 4, i32 noundef -2147483648)
  br label %72

62:                                               ; preds = %27
  %63 = load i32, ptr @hf_dtpt_connect_addr, align 4
  %64 = tail call fastcc i32 @dissect_dtpt_sockaddr(ptr noundef %0, i32 noundef 2, ptr noundef nonnull %26, ptr noundef %1, i32 noundef %63, i32 noundef 2)
  %65 = load i32, ptr @hf_dtpt_error, align 4
  %66 = tail call ptr @proto_tree_add_item(ptr noundef nonnull %26, i32 noundef %65, ptr noundef %0, i32 noundef 32, i32 noundef 4, i32 noundef -2147483648)
  br label %72

67:                                               ; preds = %27
  %68 = load i32, ptr @hf_dtpt_connect_addr, align 4
  %69 = tail call fastcc i32 @dissect_dtpt_sockaddr(ptr noundef %0, i32 noundef 2, ptr noundef nonnull %26, ptr noundef %1, i32 noundef %68, i32 noundef 2)
  %70 = load i32, ptr @hf_dtpt_error, align 4
  %71 = tail call ptr @proto_tree_add_item(ptr noundef nonnull %26, i32 noundef %70, ptr noundef %0, i32 noundef 32, i32 noundef 4, i32 noundef -2147483648)
  br label %72

72:                                               ; preds = %27, %32, %39, %44, %49, %54, %57, %62, %67, %22
  %73 = tail call i32 @tvb_captured_length(ptr noundef %0)
  br label %74

74:                                               ; preds = %6, %11, %9, %4, %72
  %.0 = phi i32 [ %73, %72 ], [ 0, %4 ], [ 0, %9 ], [ 0, %11 ], [ 0, %6 ]
  ret i32 %.0
}